; Function Attrs: mustprogress uwtable
define hidden void @_ZN5boost6nowide4test11create_fileERKNSt7__cxx1112basic_stringIcSt11char_traitsIcESaIcEEES9_NS1_9data_typeE(ptr nocapture noundef nonnull readonly align 8 dereferenceable(32) %0, ptr nocapture noundef nonnull readonly align 8 dereferenceable(32) %1, i32 noundef %2) local_unnamed_addr #3 personality ptr @__gxx_personality_v0 {
  %4 = load ptr, ptr %0, align 8, !tbaa !4
  %5 = icmp eq i32 %2, 1
  %6 = select i1 %5, ptr @.str, ptr @.str.1
  %7 = tail call noalias ptr @fopen(ptr noundef %4, ptr noundef nonnull %6)
  %8 = load atomic i8, ptr @_ZGVZN5boost6nowide4test8test_monEvE8instance acquire, align 8
  %9 = icmp eq i8 %8, 0
  br i1 %9, label %10, label %_ZN5boost6nowide4test8test_monEv.exit, !prof !11

10:                                               ; preds = %3
  %11 = tail call i32 @__cxa_guard_acquire(ptr nonnull @_ZGVZN5boost6nowide4test8test_monEvE8instance) #20
  %.not.i = icmp eq i32 %11, 0
  br i1 %.not.i, label %_ZN5boost6nowide4test8test_monEv.exit, label %12

12:                                               ; preds = %10
  store ptr getelementptr inbounds nuw (i8, ptr @_ZZN5boost6nowide4test8test_monEvE8instance, i64 16), ptr @_ZZN5boost6nowide4test8test_monEvE8instance, align 8, !tbaa !12
  store i64 0, ptr getelementptr inbounds nuw (i8, ptr @_ZZN5boost6nowide4test8test_monEvE8instance, i64 8), align 8, !tbaa !13
  store i8 0, ptr getelementptr inbounds nuw (i8, ptr @_ZZN5boost6nowide4test8test_monEvE8instance, i64 16), align 8, !tbaa !14
  %13 = tail call i32 @__cxa_atexit(ptr nonnull @_ZN5boost6nowide4test12test_monitorD2Ev, ptr nonnull @_ZZN5boost6nowide4test8test_monEvE8instance, ptr nonnull @__dso_handle) #20
  tail call void @__cxa_guard_release(ptr nonnull @_ZGVZN5boost6nowide4test8test_monEvE8instance) #20
  br label %_ZN5boost6nowide4test8test_monEv.exit

_ZN5boost6nowide4test8test_monEv.exit:            ; preds = %3, %10, %12
  %.not = icmp eq ptr %7, null
  br i1 %.not, label %14, label %15

14:                                               ; preds = %_ZN5boost6nowide4test8test_monEv.exit
  tail call void @_ZN5boost6nowide4test11test_failedEPKcS3_iS3_(ptr noundef nonnull @.str.2, ptr noundef nonnull @.str.3, i32 noundef 24, ptr noundef nonnull @__FUNCTION__._ZN5boost6nowide4test11create_fileERKNSt7__cxx1112basic_stringIcSt11char_traitsIcESaIcEEES9_NS1_9data_typeE)
  br label %15

15:                                               ; preds = %14, %_ZN5boost6nowide4test8test_monEv.exit
  %16 = load atomic i8, ptr @_ZGVZN5boost6nowide4test8test_monEvE8instance acquire, align 8
  %17 = icmp eq i8 %16, 0
  br i1 %17, label %18, label %_ZN5boost6nowide4test8test_monEv.exit8, !prof !11

18:                                               ; preds = %15
  %19 = tail call i32 @__cxa_guard_acquire(ptr nonnull @_ZGVZN5boost6nowide4test8test_monEvE8instance) #20
  %.not.i7 = icmp eq i32 %19, 0
  br i1 %.not.i7, label %_ZN5boost6nowide4test8test_monEv.exit8, label %20

20:                                               ; preds = %18
  store ptr getelementptr inbounds nuw (i8, ptr @_ZZN5boost6nowide4test8test_monEvE8instance, i64 16), ptr @_ZZN5boost6nowide4test8test_monEvE8instance, align 8, !tbaa !12
  store i64 0, ptr getelementptr inbounds nuw (i8, ptr @_ZZN5boost6nowide4test8test_monEvE8instance, i64 8), align 8, !tbaa !13
  store i8 0, ptr getelementptr inbounds nuw (i8, ptr @_ZZN5boost6nowide4test8test_monEvE8instance, i64 16), align 8, !tbaa !14
  %21 = tail call i32 @__cxa_atexit(ptr nonnull @_ZN5boost6nowide4test12test_monitorD2Ev, ptr nonnull @_ZZN5boost6nowide4test8test_monEvE8instance, ptr nonnull @__dso_handle) #20
  tail call void @__cxa_guard_release(ptr nonnull @_ZGVZN5boost6nowide4test8test_monEvE8instance) #20
  br label %_ZN5boost6nowide4test8test_monEv.exit8

_ZN5boost6nowide4test8test_monEv.exit8:           ; preds = %15, %18, %20
  %22 = load ptr, ptr %1, align 8, !tbaa !4
  %23 = getelementptr inbounds nuw i8, ptr %1, i64 8
  %24 = load i64, ptr %23, align 8, !tbaa !13
  %25 = tail call i64 @fwrite(ptr noundef %22, i64 noundef 1, i64 noundef %24, ptr noundef %7)
  %26 = load i64, ptr %23, align 8, !tbaa !13
  %27 = icmp eq i64 %25, %26
  br i1 %27, label %29, label %28

28:                                               ; preds = %_ZN5boost6nowide4test8test_monEv.exit8
  tail call void @_ZN5boost6nowide4test11test_failedEPKcS3_iS3_(ptr noundef nonnull @.str.4, ptr noundef nonnull @.str.3, i32 noundef 25, ptr noundef nonnull @__FUNCTION__._ZN5boost6nowide4test11create_fileERKNSt7__cxx1112basic_stringIcSt11char_traitsIcESaIcEEES9_NS1_9data_typeE)
  br label %29

29:                                               ; preds = %_ZN5boost6nowide4test8test_monEv.exit8, %28
  %30 = tail call i32 @fclose(ptr noundef %7)
  ret void
}